target datalayout = "e-m:e-p270:32:32-p271:32:32-p272:64:64-i64:64-i128:128-f80:128-n8:16:32:64-S128"
target triple = "x86_64-pc-linux-gnu"

%struct.darktable_t = type { %struct.dt_codepath_t, i32, i32, ptr, ptr, ptr, ptr, ptr, ptr, ptr, ptr, ptr, ptr, ptr, ptr, ptr, ptr, ptr, ptr, ptr, ptr, ptr, ptr, ptr, ptr, ptr, ptr, ptr, ptr, ptr, [64 x %struct.dt_pthread_mutex_t], %struct.dt_pthread_mutex_t, %struct.dt_pthread_mutex_t, %struct.dt_pthread_mutex_t, %struct.dt_pthread_mutex_t, %struct.dt_pthread_mutex_t, ptr, ptr, ptr, ptr, ptr, ptr, ptr, ptr, ptr, ptr, ptr, ptr, ptr, %struct.dt_lua_state_t, ptr, double, ptr, i32, [47 x i32], i32, i32, ptr, ptr, %struct.dt_sys_resources_t, %struct.dt_backthumb_t, %struct.dt_gimp_t }
%struct.dt_codepath_t = type { i8, [3 x i8] }
%struct.dt_pthread_mutex_t = type { %union.pthread_mutex_t }
%union.pthread_mutex_t = type { %struct.__pthread_mutex_s }
%struct.__pthread_mutex_s = type { i32, i32, i32, i32, i32, i16, i16, %struct.__pthread_internal_list }
%struct.__pthread_internal_list = type { ptr, ptr }
%struct.dt_lua_state_t = type { i32 }
%struct.dt_sys_resources_t = type { i64, i64, ptr, ptr, i32 }
%struct.dt_backthumb_t = type { double, double, i32, i32, i32, i32 }
%struct.dt_gimp_t = type { i32, ptr, ptr, i32, i32 }
%struct.backend_kwallet_context_t = type { ptr, ptr, ptr }
%struct._GError = type { i32, i32, ptr }

@darktable = external global %struct.darktable_t, align 8
@.str.11 = private unnamed_addr constant [63 x i8] c"[pwstorage_kwallet] ERROR: failed to complete kwallet call: %s\00", align 1
@kwallet_service_name = internal global ptr @.str.14, align 8
@kwallet_path = internal global ptr @.str.15, align 8
@kwallet_interface = internal global ptr @.str.16, align 8
@.str.12 = private unnamed_addr constant [10 x i8] c"isEnabled\00", align 1
@.str.13 = private unnamed_addr constant [14 x i8] c"networkWallet\00", align 1

; Function Attrs: nounwind uwtable
define internal i32 @check_error(ptr noundef %0) #0 {
  %2 = alloca i32, align 4
  %3 = alloca ptr, align 8
  store ptr %0, ptr %3, align 8, !tbaa !11
  %4 = load ptr, ptr %3, align 8, !tbaa !11
  %5 = icmp ne ptr %4, null
  br i1 %5, label %6, label %23

6:                                                ; preds = %1
  br label %7

7:                                                ; preds = %6
  %8 = load i32, ptr getelementptr inbounds nuw (%struct.darktable_t, ptr @darktable, i32 0, i32 2), align 8, !tbaa !18
  %9 = and i32 64, %8
  %10 = icmp ne i32 %9, 0
  br i1 %10, label %11, label %20

11:                                               ; preds = %7
  %12 = load i32, ptr getelementptr inbounds nuw (%struct.darktable_t, ptr @darktable, i32 0, i32 2), align 8, !tbaa !18
  %13 = xor i32 %12, -1
  %14 = and i32 0, %13
  %15 = icmp ne i32 %14, 0
  br i1 %15, label %20, label %16

16:                                               ; preds = %11
  %17 = load ptr, ptr %3, align 8, !tbaa !11
  %18 = getelementptr inbounds nuw %struct._GError, ptr %17, i32 0, i32 2
  %19 = load ptr, ptr %18, align 8, !tbaa !56
  call void (ptr, ...) @dt_print_ext(ptr noundef @.str.11, ptr noundef %19)
  br label %20

20:                                               ; preds = %16, %11, %7
  br label %21

21:                                               ; preds = %20
  %22 = load ptr, ptr %3, align 8, !tbaa !11
  call void @g_error_free(ptr noundef %22)
  store i32 1, ptr %2, align 4
  br label %24

23:                                               ; preds = %1
  store i32 0, ptr %2, align 4
  br label %24

24:                                               ; preds = %23, %21
  %25 = load i32, ptr %2, align 4
  ret i32 %25
}

; Function Attrs: nounwind uwtable
define internal i32 @init_kwallet(ptr noundef %0) #0 {
  %2 = alloca i32, align 4
  %3 = alloca ptr, align 8
  %4 = alloca ptr, align 8
  %5 = alloca i32, align 4
  %6 = alloca ptr, align 8
  %7 = alloca ptr, align 8
  %8 = alloca i32, align 4
  store ptr %0, ptr %3, align 8, !tbaa !6
  call void @llvm.lifetime.start.p0(i64 8, ptr %4) #8
  store ptr null, ptr %4, align 8, !tbaa !11
  %9 = load ptr, ptr %3, align 8, !tbaa !6
  %10 = getelementptr inbounds nuw %struct.backend_kwallet_context_t, ptr %9, i32 0, i32 1
  %11 = load ptr, ptr %10, align 8, !tbaa !58
  %12 = icmp ne ptr %11, null
  br i1 %12, label %13, label %17

13:                                               ; preds = %1
  %14 = load ptr, ptr %3, align 8, !tbaa !6
  %15 = getelementptr inbounds nuw %struct.backend_kwallet_context_t, ptr %14, i32 0, i32 1
  %16 = load ptr, ptr %15, align 8, !tbaa !58
  call void @g_object_unref(ptr noundef %16)
  br label %17

17:                                               ; preds = %13, %1
  %18 = load ptr, ptr %3, align 8, !tbaa !6
  %19 = getelementptr inbounds nuw %struct.backend_kwallet_context_t, ptr %18, i32 0, i32 0
  %20 = load ptr, ptr %19, align 8, !tbaa !13
  %21 = load ptr, ptr @kwallet_service_name, align 8, !tbaa !59
  %22 = load ptr, ptr @kwallet_path, align 8, !tbaa !59
  %23 = load ptr, ptr @kwallet_interface, align 8, !tbaa !59
  %24 = call ptr @g_dbus_proxy_new_sync(ptr noundef %20, i32 noundef 0, ptr noundef null, ptr noundef %21, ptr noundef %22, ptr noundef %23, ptr noundef null, ptr noundef %4)
  %25 = load ptr, ptr %3, align 8, !tbaa !6
  %26 = getelementptr inbounds nuw %struct.backend_kwallet_context_t, ptr %25, i32 0, i32 1
  store ptr %24, ptr %26, align 8, !tbaa !58
  %27 = load ptr, ptr %4, align 8, !tbaa !11
  %28 = call i32 @check_error(ptr noundef %27)
  %29 = icmp ne i32 %28, 0
  br i1 %29, label %30, label %33

30:                                               ; preds = %17
  %31 = load ptr, ptr %3, align 8, !tbaa !6
  %32 = getelementptr inbounds nuw %struct.backend_kwallet_context_t, ptr %31, i32 0, i32 1
  store ptr null, ptr %32, align 8, !tbaa !58
  store i32 0, ptr %2, align 4
  store i32 1, ptr %5, align 4
  br label %85

33:                                               ; preds = %17
  call void @llvm.lifetime.start.p0(i64 8, ptr %6) #8
  %34 = load ptr, ptr %3, align 8, !tbaa !6
  %35 = getelementptr inbounds nuw %struct.backend_kwallet_context_t, ptr %34, i32 0, i32 1
  %36 = load ptr, ptr %35, align 8, !tbaa !58
  %37 = call ptr @g_dbus_proxy_call_sync(ptr noundef %36, ptr noundef @.str.12, ptr noundef null, i32 noundef 0, i32 noundef -1, ptr noundef null, ptr noundef %4)
  store ptr %37, ptr %6, align 8, !tbaa !60
  %38 = load ptr, ptr %6, align 8, !tbaa !60
  %39 = icmp ne ptr %38, null
  br i1 %39, label %41, label %40

40:                                               ; preds = %33
  store i32 0, ptr %2, align 4
  store i32 1, ptr %5, align 4
  br label %84

41:                                               ; preds = %33
  call void @llvm.lifetime.start.p0(i64 8, ptr %7) #8
  %42 = load ptr, ptr %6, align 8, !tbaa !60
  %43 = call ptr @g_variant_get_child_value(ptr noundef %42, i64 noundef 0)
  store ptr %43, ptr %7, align 8, !tbaa !60
  call void @llvm.lifetime.start.p0(i64 4, ptr %8) #8
  %44 = load ptr, ptr %7, align 8, !tbaa !60
  %45 = call i32 @g_variant_get_boolean(ptr noundef %44)
  store i32 %45, ptr %8, align 4, !tbaa !62
  %46 = load ptr, ptr %7, align 8, !tbaa !60
  call void @g_variant_unref(ptr noundef %46)
  %47 = load ptr, ptr %6, align 8, !tbaa !60
  call void @g_variant_unref(ptr noundef %47)
  %48 = load ptr, ptr %4, align 8, !tbaa !11
  %49 = call i32 @check_error(ptr noundef %48)
  %50 = icmp ne i32 %49, 0
  br i1 %50, label %54, label %51

51:                                               ; preds = %41
  %52 = load i32, ptr %8, align 4, !tbaa !62
  %53 = icmp ne i32 %52, 0
  br i1 %53, label %55, label %54

54:                                               ; preds = %51, %41
  store i32 0, ptr %2, align 4
  store i32 1, ptr %5, align 4
  br label %83

55:                                               ; preds = %51
  %56 = load ptr, ptr %3, align 8, !tbaa !6
  %57 = getelementptr inbounds nuw %struct.backend_kwallet_context_t, ptr %56, i32 0, i32 2
  %58 = load ptr, ptr %57, align 8, !tbaa !63
  call void @g_free(ptr noundef %58)
  %59 = load ptr, ptr %3, align 8, !tbaa !6
  %60 = getelementptr inbounds nuw %struct.backend_kwallet_context_t, ptr %59, i32 0, i32 1
  %61 = load ptr, ptr %60, align 8, !tbaa !58
  %62 = call ptr @g_dbus_proxy_call_sync(ptr noundef %61, ptr noundef @.str.13, ptr noundef null, i32 noundef 0, i32 noundef -1, ptr noundef null, ptr noundef %4)
  store ptr %62, ptr %6, align 8, !tbaa !60
  %63 = load ptr, ptr %6, align 8, !tbaa !60
  %64 = call ptr @g_variant_get_child_value(ptr noundef %63, i64 noundef 0)
  store ptr %64, ptr %7, align 8, !tbaa !60
  %65 = load ptr, ptr %7, align 8, !tbaa !60
  %66 = call ptr @g_variant_dup_string(ptr noundef %65, ptr noundef null)
  %67 = load ptr, ptr %3, align 8, !tbaa !6
  %68 = getelementptr inbounds nuw %struct.backend_kwallet_context_t, ptr %67, i32 0, i32 2
  store ptr %66, ptr %68, align 8, !tbaa !63
  %69 = load ptr, ptr %7, align 8, !tbaa !60
  call void @g_variant_unref(ptr noundef %69)
  %70 = load ptr, ptr %6, align 8, !tbaa !60
  call void @g_variant_unref(ptr noundef %70)
  %71 = load ptr, ptr %4, align 8, !tbaa !11
  %72 = call i32 @check_error(ptr noundef %71)
  %73 = icmp ne i32 %72, 0
  br i1 %73, label %79, label %74

74:                                               ; preds = %55
  %75 = load ptr, ptr %3, align 8, !tbaa !6
  %76 = getelementptr inbounds nuw %struct.backend_kwallet_context_t, ptr %75, i32 0, i32 2
  %77 = load ptr, ptr %76, align 8, !tbaa !63
  %78 = icmp ne ptr %77, null
  br i1 %78, label %82, label %79

79:                                               ; preds = %74, %55
  %80 = load ptr, ptr %3, align 8, !tbaa !6
  %81 = getelementptr inbounds nuw %struct.backend_kwallet_context_t, ptr %80, i32 0, i32 2
  store ptr null, ptr %81, align 8, !tbaa !63
  store i32 0, ptr %2, align 4
  store i32 1, ptr %5, align 4
  br label %83

82:                                               ; preds = %74
  store i32 1, ptr %2, align 4
  store i32 1, ptr %5, align 4
  br label %83

83:                                               ; preds = %82, %79, %54
  call void @llvm.lifetime.end.p0(i64 4, ptr %8) #8
  call void @llvm.lifetime.end.p0(i64 8, ptr %7) #8
  br label %84

84:                                               ; preds = %83, %40
  call void @llvm.lifetime.end.p0(i64 8, ptr %6) #8
  br label %85

85:                                               ; preds = %84, %30
  call void @llvm.lifetime.end.p0(i64 8, ptr %4) #8
  %86 = load i32, ptr %2, align 4
  ret i32 %86
}