; Function Attrs: nounwind uwtable
define internal fastcc range(i32 0, 2) i32 @init_kwallet(ptr noundef captures(none) %0) unnamed_addr #0 {
  %2 = alloca ptr, align 8
  call void @llvm.lifetime.start.p0(i64 8, ptr nonnull %2) #10
  store ptr null, ptr %2, align 8, !tbaa !6
  %3 = getelementptr inbounds nuw i8, ptr %0, i64 8
  %4 = load ptr, ptr %3, align 8, !tbaa !57
  %.not = icmp eq ptr %4, null
  br i1 %.not, label %6, label %5

5:                                                ; preds = %1
  tail call void @g_object_unref(ptr noundef nonnull %4) #10
  br label %6

6:                                                ; preds = %5, %1
  %7 = load ptr, ptr %0, align 8, !tbaa !11
  %8 = call ptr @g_dbus_proxy_new_sync(ptr noundef %7, i32 noundef 0, ptr noundef null, ptr noundef nonnull @.str.14, ptr noundef nonnull @.str.15, ptr noundef nonnull @.str.16, ptr noundef null, ptr noundef nonnull %2) #10
  store ptr %8, ptr %3, align 8, !tbaa !57
  %9 = load ptr, ptr %2, align 8, !tbaa !6
  %.not.i = icmp eq ptr %9, null
  br i1 %.not.i, label %17, label %10

10:                                               ; preds = %6
  %11 = load i32, ptr getelementptr inbounds nuw (i8, ptr @darktable, i64 8), align 8, !tbaa !16
  %12 = and i32 %11, 64
  %.not4.i = icmp eq i32 %12, 0
  br i1 %.not4.i, label %16, label %13

13:                                               ; preds = %10
  %14 = getelementptr inbounds nuw i8, ptr %9, i64 8
  %15 = load ptr, ptr %14, align 8, !tbaa !54
  call void (ptr, ...) @dt_print_ext(ptr noundef nonnull @.str.11, ptr noundef %15) #10
  br label %16

16:                                               ; preds = %13, %10
  call void @g_error_free(ptr noundef nonnull %9) #10
  store ptr null, ptr %3, align 8, !tbaa !57
  br label %46

17:                                               ; preds = %6
  %18 = call ptr @g_dbus_proxy_call_sync(ptr noundef %8, ptr noundef nonnull @.str.12, ptr noundef null, i32 noundef 0, i32 noundef -1, ptr noundef null, ptr noundef nonnull %2) #10
  %.not25 = icmp eq ptr %18, null
  br i1 %.not25, label %46, label %19

19:                                               ; preds = %17
  %20 = call ptr @g_variant_get_child_value(ptr noundef nonnull %18, i64 noundef 0) #10
  %21 = call i32 @g_variant_get_boolean(ptr noundef %20) #10
  call void @g_variant_unref(ptr noundef %20) #10
  call void @g_variant_unref(ptr noundef nonnull %18) #10
  %22 = load ptr, ptr %2, align 8, !tbaa !6
  %.not.i28 = icmp eq ptr %22, null
  br i1 %.not.i28, label %check_error.exit31, label %23

23:                                               ; preds = %19
  %24 = load i32, ptr getelementptr inbounds nuw (i8, ptr @darktable, i64 8), align 8, !tbaa !16
  %25 = and i32 %24, 64
  %.not4.i29 = icmp eq i32 %25, 0
  br i1 %.not4.i29, label %check_error.exit31.thread, label %26

26:                                               ; preds = %23
  %27 = getelementptr inbounds nuw i8, ptr %22, i64 8
  %28 = load ptr, ptr %27, align 8, !tbaa !54
  call void (ptr, ...) @dt_print_ext(ptr noundef nonnull @.str.11, ptr noundef %28) #10
  br label %check_error.exit31.thread

check_error.exit31.thread:                        ; preds = %23, %26
  call void @g_error_free(ptr noundef nonnull %22) #10
  br label %46

check_error.exit31:                               ; preds = %19
  %.not42 = icmp eq i32 %21, 0
  br i1 %.not42, label %46, label %29

29:                                               ; preds = %check_error.exit31
  %30 = getelementptr inbounds nuw i8, ptr %0, i64 16
  %31 = load ptr, ptr %30, align 8, !tbaa !58
  call void @g_free(ptr noundef %31) #10
  %32 = load ptr, ptr %3, align 8, !tbaa !57
  %33 = call ptr @g_dbus_proxy_call_sync(ptr noundef %32, ptr noundef nonnull @.str.13, ptr noundef null, i32 noundef 0, i32 noundef -1, ptr noundef null, ptr noundef nonnull %2) #10
  %34 = call ptr @g_variant_get_child_value(ptr noundef %33, i64 noundef 0) #10
  %35 = call ptr @g_variant_dup_string(ptr noundef %34, ptr noundef null) #10
  store ptr %35, ptr %30, align 8, !tbaa !58
  call void @g_variant_unref(ptr noundef %34) #10
  call void @g_variant_unref(ptr noundef %33) #10
  %36 = load ptr, ptr %2, align 8, !tbaa !6
  %.not.i32 = icmp eq ptr %36, null
  br i1 %.not.i32, label %43, label %37

37:                                               ; preds = %29
  %38 = load i32, ptr getelementptr inbounds nuw (i8, ptr @darktable, i64 8), align 8, !tbaa !16
  %39 = and i32 %38, 64
  %.not4.i33 = icmp eq i32 %39, 0
  br i1 %.not4.i33, label %check_error.exit35, label %40

40:                                               ; preds = %37
  %41 = getelementptr inbounds nuw i8, ptr %36, i64 8
  %42 = load ptr, ptr %41, align 8, !tbaa !54
  call void (ptr, ...) @dt_print_ext(ptr noundef nonnull @.str.11, ptr noundef %42) #10
  br label %check_error.exit35

check_error.exit35:                               ; preds = %37, %40
  call void @g_error_free(ptr noundef nonnull %36) #10
  br label %45

43:                                               ; preds = %29
  %44 = load ptr, ptr %30, align 8, !tbaa !58
  %.not27 = icmp eq ptr %44, null
  br i1 %.not27, label %45, label %46

45:                                               ; preds = %check_error.exit35, %43
  store ptr null, ptr %30, align 8, !tbaa !58
  br label %46

46:                                               ; preds = %check_error.exit31.thread, %17, %43, %check_error.exit31, %45, %16
  %.0 = phi i32 [ 0, %16 ], [ 0, %17 ], [ 0, %45 ], [ 0, %check_error.exit31 ], [ 1, %43 ], [ 0, %check_error.exit31.thread ]
  call void @llvm.lifetime.end.p0(i64 8, ptr nonnull %2) #10
  ret i32 %.0
}